target datalayout = "e-m:e-p270:32:32-p271:32:32-p272:64:64-i64:64-i128:128-f80:128-n8:16:32:64-S128"
target triple = "x86_64-pc-linux-gnu"

%struct.AngleSet = type { [360 x %struct.AngleSetArc], i32, i32, double }
%struct.AngleSetArc = type { double, double, i32 }

; Function Attrs: mustprogress nounwind uwtable
define hidden void @_ZN8AngleSet20computeStartEndThetaERdS0_(ptr noundef nonnull align 8 dereferenceable(8656) %0, ptr noundef nonnull align 8 dereferenceable(8) %1, ptr noundef nonnull align 8 dereferenceable(8) %2) #8 align 2 {
  %4 = alloca ptr, align 8
  %5 = alloca ptr, align 8
  %6 = alloca ptr, align 8
  %7 = alloca i32, align 4
  %8 = alloca i32, align 4
  %9 = alloca double, align 8
  %10 = alloca double, align 8
  %11 = alloca double, align 8
  %12 = alloca double, align 8
  %13 = alloca double, align 8
  %14 = alloca double, align 8
  store ptr %0, ptr %4, align 8, !tbaa !24
  store ptr %1, ptr %5, align 8, !tbaa !42
  store ptr %2, ptr %6, align 8, !tbaa !42
  %15 = load ptr, ptr %4, align 8
  %16 = getelementptr inbounds nuw %struct.AngleSet, ptr %15, i32 0, i32 0
  %17 = getelementptr inbounds nuw %struct.AngleSet, ptr %15, i32 0, i32 1
  %18 = load i32, ptr %17, align 8, !tbaa !32
  %19 = sext i32 %18 to i64
  %20 = getelementptr inbounds [360 x %struct.AngleSetArc], ptr %16, i64 0, i64 %19
  %21 = getelementptr inbounds nuw %struct.AngleSetArc, ptr %20, i32 0, i32 2
  %22 = load i32, ptr %21, align 8, !tbaa !31
  %23 = icmp slt i32 %22, 0
  br i1 %23, label %24, label %41

24:                                               ; preds = %3
  %25 = getelementptr inbounds nuw %struct.AngleSet, ptr %15, i32 0, i32 0
  %26 = getelementptr inbounds nuw %struct.AngleSet, ptr %15, i32 0, i32 1
  %27 = load i32, ptr %26, align 8, !tbaa !32
  %28 = sext i32 %27 to i64
  %29 = getelementptr inbounds [360 x %struct.AngleSetArc], ptr %25, i64 0, i64 %28
  %30 = getelementptr inbounds nuw %struct.AngleSetArc, ptr %29, i32 0, i32 0
  %31 = load double, ptr %30, align 8, !tbaa !28
  %32 = load ptr, ptr %5, align 8, !tbaa !42
  store double %31, ptr %32, align 8, !tbaa !10
  %33 = getelementptr inbounds nuw %struct.AngleSet, ptr %15, i32 0, i32 0
  %34 = getelementptr inbounds nuw %struct.AngleSet, ptr %15, i32 0, i32 1
  %35 = load i32, ptr %34, align 8, !tbaa !32
  %36 = sext i32 %35 to i64
  %37 = getelementptr inbounds [360 x %struct.AngleSetArc], ptr %33, i64 0, i64 %36
  %38 = getelementptr inbounds nuw %struct.AngleSetArc, ptr %37, i32 0, i32 1
  %39 = load double, ptr %38, align 8, !tbaa !30
  %40 = load ptr, ptr %6, align 8, !tbaa !42
  store double %39, ptr %40, align 8, !tbaa !10
  br label %130

41:                                               ; preds = %3
  call void @llvm.lifetime.start.p0(i64 4, ptr %7) #3
  %42 = getelementptr inbounds nuw %struct.AngleSet, ptr %15, i32 0, i32 1
  %43 = load i32, ptr %42, align 8, !tbaa !32
  store i32 %43, ptr %7, align 4, !tbaa !8
  call void @llvm.lifetime.start.p0(i64 4, ptr %8) #3
  %44 = getelementptr inbounds nuw %struct.AngleSet, ptr %15, i32 0, i32 0
  %45 = load i32, ptr %7, align 4, !tbaa !8
  %46 = sext i32 %45 to i64
  %47 = getelementptr inbounds [360 x %struct.AngleSetArc], ptr %44, i64 0, i64 %46
  %48 = getelementptr inbounds nuw %struct.AngleSetArc, ptr %47, i32 0, i32 2
  %49 = load i32, ptr %48, align 8, !tbaa !31
  store i32 %49, ptr %8, align 4, !tbaa !8
  call void @llvm.lifetime.start.p0(i64 8, ptr %9) #3
  %50 = getelementptr inbounds nuw %struct.AngleSet, ptr %15, i32 0, i32 0
  %51 = load i32, ptr %7, align 4, !tbaa !8
  %52 = sext i32 %51 to i64
  %53 = getelementptr inbounds [360 x %struct.AngleSetArc], ptr %50, i64 0, i64 %52
  %54 = getelementptr inbounds nuw %struct.AngleSetArc, ptr %53, i32 0, i32 1
  %55 = load double, ptr %54, align 8, !tbaa !30
  store double %55, ptr %9, align 8, !tbaa !10
  call void @llvm.lifetime.start.p0(i64 8, ptr %10) #3
  %56 = getelementptr inbounds nuw %struct.AngleSet, ptr %15, i32 0, i32 0
  %57 = load i32, ptr %8, align 4, !tbaa !8
  %58 = sext i32 %57 to i64
  %59 = getelementptr inbounds [360 x %struct.AngleSetArc], ptr %56, i64 0, i64 %58
  %60 = getelementptr inbounds nuw %struct.AngleSetArc, ptr %59, i32 0, i32 0
  %61 = load double, ptr %60, align 8, !tbaa !28
  store double %61, ptr %10, align 8, !tbaa !10
  call void @llvm.lifetime.start.p0(i64 8, ptr %11) #3
  %62 = load double, ptr %10, align 8, !tbaa !10
  %63 = load double, ptr %9, align 8, !tbaa !10
  %64 = fsub double %62, %63
  store double %64, ptr %11, align 8, !tbaa !10
  call void @llvm.lifetime.start.p0(i64 8, ptr %12) #3
  call void @llvm.lifetime.start.p0(i64 8, ptr %13) #3
  call void @llvm.lifetime.start.p0(i64 8, ptr %14) #3
  br label %65

65:                                               ; preds = %100, %41
  br label %66

66:                                               ; preds = %65
  %67 = load i32, ptr %8, align 4, !tbaa !8
  store i32 %67, ptr %7, align 4, !tbaa !8
  %68 = getelementptr inbounds nuw %struct.AngleSet, ptr %15, i32 0, i32 0
  %69 = load i32, ptr %8, align 4, !tbaa !8
  %70 = sext i32 %69 to i64
  %71 = getelementptr inbounds [360 x %struct.AngleSetArc], ptr %68, i64 0, i64 %70
  %72 = getelementptr inbounds nuw %struct.AngleSetArc, ptr %71, i32 0, i32 2
  %73 = load i32, ptr %72, align 8, !tbaa !31
  store i32 %73, ptr %8, align 4, !tbaa !8
  %74 = load i32, ptr %8, align 4, !tbaa !8
  %75 = icmp slt i32 %74, 0
  br i1 %75, label %76, label %77

76:                                               ; preds = %66
  br label %101

77:                                               ; preds = %66
  %78 = getelementptr inbounds nuw %struct.AngleSet, ptr %15, i32 0, i32 0
  %79 = load i32, ptr %7, align 4, !tbaa !8
  %80 = sext i32 %79 to i64
  %81 = getelementptr inbounds [360 x %struct.AngleSetArc], ptr %78, i64 0, i64 %80
  %82 = getelementptr inbounds nuw %struct.AngleSetArc, ptr %81, i32 0, i32 1
  %83 = load double, ptr %82, align 8, !tbaa !30
  store double %83, ptr %12, align 8, !tbaa !10
  %84 = getelementptr inbounds nuw %struct.AngleSet, ptr %15, i32 0, i32 0
  %85 = load i32, ptr %8, align 4, !tbaa !8
  %86 = sext i32 %85 to i64
  %87 = getelementptr inbounds [360 x %struct.AngleSetArc], ptr %84, i64 0, i64 %86
  %88 = getelementptr inbounds nuw %struct.AngleSetArc, ptr %87, i32 0, i32 0
  %89 = load double, ptr %88, align 8, !tbaa !28
  store double %89, ptr %13, align 8, !tbaa !10
  %90 = load double, ptr %13, align 8, !tbaa !10
  %91 = load double, ptr %12, align 8, !tbaa !10
  %92 = fsub double %90, %91
  store double %92, ptr %14, align 8, !tbaa !10
  %93 = load double, ptr %14, align 8, !tbaa !10
  %94 = load double, ptr %11, align 8, !tbaa !10
  %95 = fcmp ogt double %93, %94
  br i1 %95, label %96, label %100

96:                                               ; preds = %77
  %97 = load double, ptr %12, align 8, !tbaa !10
  store double %97, ptr %9, align 8, !tbaa !10
  %98 = load double, ptr %13, align 8, !tbaa !10
  store double %98, ptr %10, align 8, !tbaa !10
  %99 = load double, ptr %14, align 8, !tbaa !10
  store double %99, ptr %11, align 8, !tbaa !10
  br label %100

100:                                              ; preds = %96, %77
  br label %65, !llvm.loop !44

101:                                              ; preds = %76
  %102 = getelementptr inbounds nuw %struct.AngleSet, ptr %15, i32 0, i32 0
  %103 = load i32, ptr %7, align 4, !tbaa !8
  %104 = sext i32 %103 to i64
  %105 = getelementptr inbounds [360 x %struct.AngleSetArc], ptr %102, i64 0, i64 %104
  %106 = getelementptr inbounds nuw %struct.AngleSetArc, ptr %105, i32 0, i32 1
  %107 = load double, ptr %106, align 8, !tbaa !30
  store double %107, ptr %12, align 8, !tbaa !10
  %108 = getelementptr inbounds nuw %struct.AngleSet, ptr %15, i32 0, i32 0
  %109 = getelementptr inbounds nuw %struct.AngleSet, ptr %15, i32 0, i32 1
  %110 = load i32, ptr %109, align 8, !tbaa !32
  %111 = sext i32 %110 to i64
  %112 = getelementptr inbounds [360 x %struct.AngleSetArc], ptr %108, i64 0, i64 %111
  %113 = getelementptr inbounds nuw %struct.AngleSetArc, ptr %112, i32 0, i32 0
  %114 = load double, ptr %113, align 8, !tbaa !28
  store double %114, ptr %13, align 8, !tbaa !10
  %115 = load double, ptr %12, align 8, !tbaa !10
  %116 = fsub double 0x401921FB54442D18, %115
  %117 = load double, ptr %13, align 8, !tbaa !10
  %118 = fadd double %116, %117
  store double %118, ptr %14, align 8, !tbaa !10
  %119 = load double, ptr %14, align 8, !tbaa !10
  %120 = load double, ptr %11, align 8, !tbaa !10
  %121 = fcmp ogt double %119, %120
  br i1 %121, label %122, label %125

122:                                              ; preds = %101
  %123 = load double, ptr %12, align 8, !tbaa !10
  store double %123, ptr %9, align 8, !tbaa !10
  %124 = load double, ptr %13, align 8, !tbaa !10
  store double %124, ptr %10, align 8, !tbaa !10
  br label %125

125:                                              ; preds = %122, %101
  %126 = load double, ptr %10, align 8, !tbaa !10
  %127 = load ptr, ptr %5, align 8, !tbaa !42
  store double %126, ptr %127, align 8, !tbaa !10
  %128 = load double, ptr %9, align 8, !tbaa !10
  %129 = load ptr, ptr %6, align 8, !tbaa !42
  store double %128, ptr %129, align 8, !tbaa !10
  call void @llvm.lifetime.end.p0(i64 8, ptr %14) #3
  call void @llvm.lifetime.end.p0(i64 8, ptr %13) #3
  call void @llvm.lifetime.end.p0(i64 8, ptr %12) #3
  call void @llvm.lifetime.end.p0(i64 8, ptr %11) #3
  call void @llvm.lifetime.end.p0(i64 8, ptr %10) #3
  call void @llvm.lifetime.end.p0(i64 8, ptr %9) #3
  call void @llvm.lifetime.end.p0(i64 4, ptr %8) #3
  call void @llvm.lifetime.end.p0(i64 4, ptr %7) #3
  br label %130

130:                                              ; preds = %125, %24
  ret void
}