; Function Attrs: mustprogress nofree norecurse nosync nounwind memory(argmem: readwrite) uwtable
define hidden void @_ZN8AngleSet20computeStartEndThetaERdS0_(ptr noundef nonnull readonly align 8 captures(none) dereferenceable(8656) %0, ptr noundef nonnull writeonly align 8 captures(none) dereferenceable(8) %1, ptr noundef nonnull writeonly align 8 captures(none) dereferenceable(8) %2) local_unnamed_addr #12 align 2 {
  %4 = getelementptr inbounds nuw i8, ptr %0, i64 8640
  %5 = load i32, ptr %4, align 8, !tbaa !27
  %6 = sext i32 %5 to i64
  %7 = getelementptr inbounds [360 x %struct.AngleSetArc], ptr %0, i64 0, i64 %6
  %8 = getelementptr inbounds nuw i8, ptr %7, i64 16
  %9 = load i32, ptr %8, align 8, !tbaa !26
  %10 = icmp slt i32 %9, 0
  br i1 %10, label %11, label %15

11:                                               ; preds = %3
  %12 = load double, ptr %7, align 8, !tbaa !23
  store double %12, ptr %1, align 8, !tbaa !37
  %13 = getelementptr inbounds [360 x %struct.AngleSetArc], ptr %0, i64 0, i64 %6, i32 1
  %14 = load double, ptr %13, align 8, !tbaa !25
  br label %44

15:                                               ; preds = %3
  %16 = getelementptr inbounds nuw i8, ptr %7, i64 8
  %17 = load double, ptr %16, align 8, !tbaa !25
  %18 = zext nneg i32 %9 to i64
  %19 = getelementptr inbounds nuw [360 x %struct.AngleSetArc], ptr %0, i64 0, i64 %18
  %20 = load double, ptr %19, align 8, !tbaa !23
  %21 = fsub double %20, %17
  %22 = getelementptr inbounds nuw [360 x %struct.AngleSetArc], ptr %0, i64 0, i64 %18, i32 2
  %23 = load i32, ptr %22, align 8, !tbaa !26
  %24 = icmp slt i32 %23, 0
  br i1 %24, label %._crit_edge, label %.lr.ph

.lr.ph:                                           ; preds = %15, %.lr.ph
  %25 = phi i32 [ %35, %.lr.ph ], [ %23, %15 ]
  %26 = phi i64 [ %29, %.lr.ph ], [ %18, %15 ]
  %.041 = phi double [ %.1, %.lr.ph ], [ %21, %15 ]
  %.03040 = phi double [ %.131, %.lr.ph ], [ %20, %15 ]
  %.03239 = phi double [ %.133, %.lr.ph ], [ %17, %15 ]
  %27 = getelementptr inbounds nuw [360 x %struct.AngleSetArc], ptr %0, i64 0, i64 %26, i32 1
  %28 = load double, ptr %27, align 8, !tbaa !25
  %29 = zext nneg i32 %25 to i64
  %30 = getelementptr inbounds nuw [360 x %struct.AngleSetArc], ptr %0, i64 0, i64 %29
  %31 = load double, ptr %30, align 8, !tbaa !23
  %32 = fsub double %31, %28
  %33 = fcmp ogt double %32, %.041
  %.133 = select i1 %33, double %28, double %.03239
  %.131 = select i1 %33, double %31, double %.03040
  %.1 = select i1 %33, double %32, double %.041
  %34 = getelementptr inbounds nuw [360 x %struct.AngleSetArc], ptr %0, i64 0, i64 %29, i32 2
  %35 = load i32, ptr %34, align 8, !tbaa !26
  %36 = icmp slt i32 %35, 0
  br i1 %36, label %._crit_edge, label %.lr.ph, !llvm.loop !38

._crit_edge:                                      ; preds = %.lr.ph, %15
  %.032.lcssa = phi double [ %17, %15 ], [ %.133, %.lr.ph ]
  %.030.lcssa = phi double [ %20, %15 ], [ %.131, %.lr.ph ]
  %.0.lcssa = phi double [ %21, %15 ], [ %.1, %.lr.ph ]
  %37 = phi i64 [ %18, %15 ], [ %29, %.lr.ph ]
  %38 = getelementptr inbounds nuw [360 x %struct.AngleSetArc], ptr %0, i64 0, i64 %37, i32 1
  %39 = load double, ptr %38, align 8, !tbaa !25
  %40 = load double, ptr %7, align 8, !tbaa !23
  %41 = fsub double 0x401921FB54442D18, %39
  %42 = fadd double %41, %40
  %43 = fcmp ogt double %42, %.0.lcssa
  %.234 = select i1 %43, double %39, double %.032.lcssa
  %.2 = select i1 %43, double %40, double %.030.lcssa
  store double %.2, ptr %1, align 8, !tbaa !37
  br label %44

44:                                               ; preds = %._crit_edge, %11
  %storemerge = phi double [ %.234, %._crit_edge ], [ %14, %11 ]
  store double %storemerge, ptr %2, align 8, !tbaa !37
  ret void
}